target datalayout = "e-m:e-p270:32:32-p271:32:32-p272:64:64-i64:64-i128:128-f80:128-n8:16:32:64-S128"
target triple = "x86_64-pc-linux-gnu"

%struct.Proto = type { ptr, i8, i8, ptr, ptr, ptr, ptr, ptr, ptr, ptr, i32, i32, i32, i32, i32, i32, i32, i32, ptr, i8, i8, i8, i8 }
%struct.LexState = type { i32, i32, i32, %struct.Token, %struct.Token, ptr, ptr, ptr, ptr, ptr, i8 }
%struct.Token = type { i32, %union.SemInfo }
%union.SemInfo = type { double }
%struct.FuncState = type { ptr, ptr, ptr, ptr, ptr, ptr, i32, i32, i32, i32, i32, i32, i16, i8, [60 x %struct.upvaldesc], [200 x i16] }
%struct.upvaldesc = type { i8, i8 }
%struct.BlockCnt = type { ptr, i32, i8, i8, i8 }

@.str.150 = private unnamed_addr constant [27 x i8] c"control structure too long\00", align 1
@.str.174 = private unnamed_addr constant [17 x i8] c"no loop to break\00", align 1

; Function Attrs: nounwind uwtable
define internal void @fixjump(ptr noundef %0, i32 noundef %1, i32 noundef %2) #0 {
  %4 = alloca ptr, align 8
  %5 = alloca i32, align 4
  %6 = alloca i32, align 4
  %7 = alloca ptr, align 8
  %8 = alloca i32, align 4
  store ptr %0, ptr %4, align 8, !tbaa !337
  store i32 %1, ptr %5, align 4, !tbaa !4
  store i32 %2, ptr %6, align 4, !tbaa !4
  call void @llvm.lifetime.start.p0(i64 8, ptr %7) #14
  %9 = load ptr, ptr %4, align 8, !tbaa !337
  %10 = getelementptr inbounds nuw %struct.FuncState, ptr %9, i32 0, i32 0
  %11 = load ptr, ptr %10, align 8, !tbaa !323
  %12 = getelementptr inbounds nuw %struct.Proto, ptr %11, i32 0, i32 4
  %13 = load ptr, ptr %12, align 8, !tbaa !158
  %14 = load i32, ptr %5, align 4, !tbaa !4
  %15 = sext i32 %14 to i64
  %16 = getelementptr inbounds i32, ptr %13, i64 %15
  store ptr %16, ptr %7, align 8, !tbaa !183
  call void @llvm.lifetime.start.p0(i64 4, ptr %8) #14
  %17 = load i32, ptr %6, align 4, !tbaa !4
  %18 = load i32, ptr %5, align 4, !tbaa !4
  %19 = add nsw i32 %18, 1
  %20 = sub nsw i32 %17, %19
  store i32 %20, ptr %8, align 4, !tbaa !4
  %21 = load i32, ptr %8, align 4, !tbaa !4
  %22 = call i32 @llvm.abs.i32(i32 %21, i1 true)
  %23 = icmp sgt i32 %22, 131071
  br i1 %23, label %24, label %28

24:                                               ; preds = %3
  %25 = load ptr, ptr %4, align 8, !tbaa !337
  %26 = getelementptr inbounds nuw %struct.FuncState, ptr %25, i32 0, i32 3
  %27 = load ptr, ptr %26, align 8, !tbaa !339
  call void @luaX_syntaxerror(ptr noundef %27, ptr noundef @.str.150)
  br label %28

28:                                               ; preds = %24, %3
  %29 = load ptr, ptr %7, align 8, !tbaa !183
  %30 = load i32, ptr %29, align 4, !tbaa !4
  %31 = and i32 %30, 16383
  %32 = load i32, ptr %8, align 4, !tbaa !4
  %33 = add nsw i32 %32, 131071
  %34 = shl i32 %33, 14
  %35 = and i32 %34, -16384
  %36 = or i32 %31, %35
  %37 = load ptr, ptr %7, align 8, !tbaa !183
  store i32 %36, ptr %37, align 4, !tbaa !4
  call void @llvm.lifetime.end.p0(i64 4, ptr %8) #14
  call void @llvm.lifetime.end.p0(i64 8, ptr %7) #14
  ret void
}

; Function Attrs: nounwind uwtable
define internal i32 @getjump(ptr noundef %0, i32 noundef %1) #0 {
  %3 = alloca i32, align 4
  %4 = alloca ptr, align 8
  %5 = alloca i32, align 4
  %6 = alloca i32, align 4
  %7 = alloca i32, align 4
  store ptr %0, ptr %4, align 8, !tbaa !337
  store i32 %1, ptr %5, align 4, !tbaa !4
  call void @llvm.lifetime.start.p0(i64 4, ptr %6) #14
  %8 = load ptr, ptr %4, align 8, !tbaa !337
  %9 = getelementptr inbounds nuw %struct.FuncState, ptr %8, i32 0, i32 0
  %10 = load ptr, ptr %9, align 8, !tbaa !323
  %11 = getelementptr inbounds nuw %struct.Proto, ptr %10, i32 0, i32 4
  %12 = load ptr, ptr %11, align 8, !tbaa !158
  %13 = load i32, ptr %5, align 4, !tbaa !4
  %14 = sext i32 %13 to i64
  %15 = getelementptr inbounds i32, ptr %12, i64 %14
  %16 = load i32, ptr %15, align 4, !tbaa !4
  %17 = lshr i32 %16, 14
  %18 = and i32 %17, 262143
  %19 = sub nsw i32 %18, 131071
  store i32 %19, ptr %6, align 4, !tbaa !4
  %20 = load i32, ptr %6, align 4, !tbaa !4
  %21 = icmp eq i32 %20, -1
  br i1 %21, label %22, label %23

22:                                               ; preds = %2
  store i32 -1, ptr %3, align 4
  store i32 1, ptr %7, align 4
  br label %28

23:                                               ; preds = %2
  %24 = load i32, ptr %5, align 4, !tbaa !4
  %25 = add nsw i32 %24, 1
  %26 = load i32, ptr %6, align 4, !tbaa !4
  %27 = add nsw i32 %25, %26
  store i32 %27, ptr %3, align 4
  store i32 1, ptr %7, align 4
  br label %28

28:                                               ; preds = %23, %22
  call void @llvm.lifetime.end.p0(i64 4, ptr %6) #14
  %29 = load i32, ptr %3, align 4
  ret i32 %29
}

; Function Attrs: nounwind uwtable
define internal i32 @luaK_codeABx(ptr noundef %0, i32 noundef %1, i32 noundef %2, i32 noundef %3) #0 {
  %5 = alloca ptr, align 8
  %6 = alloca i32, align 4
  %7 = alloca i32, align 4
  %8 = alloca i32, align 4
  store ptr %0, ptr %5, align 8, !tbaa !337
  store i32 %1, ptr %6, align 4, !tbaa !4
  store i32 %2, ptr %7, align 4, !tbaa !4
  store i32 %3, ptr %8, align 4, !tbaa !4
  %9 = load ptr, ptr %5, align 8, !tbaa !337
  %10 = load i32, ptr %6, align 4, !tbaa !4
  %11 = shl i32 %10, 0
  %12 = load i32, ptr %7, align 4, !tbaa !4
  %13 = shl i32 %12, 6
  %14 = or i32 %11, %13
  %15 = load i32, ptr %8, align 4, !tbaa !4
  %16 = shl i32 %15, 14
  %17 = or i32 %14, %16
  %18 = load ptr, ptr %5, align 8, !tbaa !337
  %19 = getelementptr inbounds nuw %struct.FuncState, ptr %18, i32 0, i32 3
  %20 = load ptr, ptr %19, align 8, !tbaa !339
  %21 = getelementptr inbounds nuw %struct.LexState, ptr %20, i32 0, i32 2
  %22 = load i32, ptr %21, align 8, !tbaa !334
  %23 = call i32 @luaK_code(ptr noundef %9, i32 noundef %17, i32 noundef %22)
  ret i32 %23
}

; Function Attrs: nounwind uwtable
define internal void @luaK_concat(ptr noundef %0, ptr noundef %1, i32 noundef %2) #0 {
  %4 = alloca ptr, align 8
  %5 = alloca ptr, align 8
  %6 = alloca i32, align 4
  %7 = alloca i32, align 4
  %8 = alloca i32, align 4
  store ptr %0, ptr %4, align 8, !tbaa !337
  store ptr %1, ptr %5, align 8, !tbaa !183
  store i32 %2, ptr %6, align 4, !tbaa !4
  %9 = load i32, ptr %6, align 4, !tbaa !4
  %10 = icmp eq i32 %9, -1
  br i1 %10, label %11, label %12

11:                                               ; preds = %3
  br label %34

12:                                               ; preds = %3
  %13 = load ptr, ptr %5, align 8, !tbaa !183
  %14 = load i32, ptr %13, align 4, !tbaa !4
  %15 = icmp eq i32 %14, -1
  br i1 %15, label %16, label %19

16:                                               ; preds = %12
  %17 = load i32, ptr %6, align 4, !tbaa !4
  %18 = load ptr, ptr %5, align 8, !tbaa !183
  store i32 %17, ptr %18, align 4, !tbaa !4
  br label %33

19:                                               ; preds = %12
  call void @llvm.lifetime.start.p0(i64 4, ptr %7) #14
  %20 = load ptr, ptr %5, align 8, !tbaa !183
  %21 = load i32, ptr %20, align 4, !tbaa !4
  store i32 %21, ptr %7, align 4, !tbaa !4
  call void @llvm.lifetime.start.p0(i64 4, ptr %8) #14
  br label %22

22:                                               ; preds = %27, %19
  %23 = load ptr, ptr %4, align 8, !tbaa !337
  %24 = load i32, ptr %7, align 4, !tbaa !4
  %25 = call i32 @getjump(ptr noundef %23, i32 noundef %24)
  store i32 %25, ptr %8, align 4, !tbaa !4
  %26 = icmp ne i32 %25, -1
  br i1 %26, label %27, label %29

27:                                               ; preds = %22
  %28 = load i32, ptr %8, align 4, !tbaa !4
  store i32 %28, ptr %7, align 4, !tbaa !4
  br label %22, !llvm.loop !379

29:                                               ; preds = %22
  %30 = load ptr, ptr %4, align 8, !tbaa !337
  %31 = load i32, ptr %7, align 4, !tbaa !4
  %32 = load i32, ptr %6, align 4, !tbaa !4
  call void @fixjump(ptr noundef %30, i32 noundef %31, i32 noundef %32)
  call void @llvm.lifetime.end.p0(i64 4, ptr %8) #14
  call void @llvm.lifetime.end.p0(i64 4, ptr %7) #14
  br label %33

33:                                               ; preds = %29, %16
  br label %34

34:                                               ; preds = %11, %33
  ret void
}

; Function Attrs: nounwind uwtable
define internal i32 @luaK_jump(ptr noundef %0) #0 {
  %2 = alloca ptr, align 8
  %3 = alloca i32, align 4
  %4 = alloca i32, align 4
  store ptr %0, ptr %2, align 8, !tbaa !337
  call void @llvm.lifetime.start.p0(i64 4, ptr %3) #14
  %5 = load ptr, ptr %2, align 8, !tbaa !337
  %6 = getelementptr inbounds nuw %struct.FuncState, ptr %5, i32 0, i32 8
  %7 = load i32, ptr %6, align 8, !tbaa !343
  store i32 %7, ptr %3, align 4, !tbaa !4
  call void @llvm.lifetime.start.p0(i64 4, ptr %4) #14
  %8 = load ptr, ptr %2, align 8, !tbaa !337
  %9 = getelementptr inbounds nuw %struct.FuncState, ptr %8, i32 0, i32 8
  store i32 -1, ptr %9, align 8, !tbaa !343
  %10 = load ptr, ptr %2, align 8, !tbaa !337
  %11 = call i32 @luaK_codeABx(ptr noundef %10, i32 noundef 22, i32 noundef 0, i32 noundef 131070)
  store i32 %11, ptr %4, align 4, !tbaa !4
  %12 = load ptr, ptr %2, align 8, !tbaa !337
  %13 = load i32, ptr %3, align 4, !tbaa !4
  call void @luaK_concat(ptr noundef %12, ptr noundef %4, i32 noundef %13)
  %14 = load i32, ptr %4, align 4, !tbaa !4
  call void @llvm.lifetime.end.p0(i64 4, ptr %4) #14
  call void @llvm.lifetime.end.p0(i64 4, ptr %3) #14
  ret i32 %14
}

; Function Attrs: nounwind uwtable
define internal i32 @luaK_codeABC(ptr noundef %0, i32 noundef %1, i32 noundef %2, i32 noundef %3, i32 noundef %4) #0 {
  %6 = alloca ptr, align 8
  %7 = alloca i32, align 4
  %8 = alloca i32, align 4
  %9 = alloca i32, align 4
  %10 = alloca i32, align 4
  store ptr %0, ptr %6, align 8, !tbaa !337
  store i32 %1, ptr %7, align 4, !tbaa !4
  store i32 %2, ptr %8, align 4, !tbaa !4
  store i32 %3, ptr %9, align 4, !tbaa !4
  store i32 %4, ptr %10, align 4, !tbaa !4
  %11 = load ptr, ptr %6, align 8, !tbaa !337
  %12 = load i32, ptr %7, align 4, !tbaa !4
  %13 = shl i32 %12, 0
  %14 = load i32, ptr %8, align 4, !tbaa !4
  %15 = shl i32 %14, 6
  %16 = or i32 %13, %15
  %17 = load i32, ptr %9, align 4, !tbaa !4
  %18 = shl i32 %17, 23
  %19 = or i32 %16, %18
  %20 = load i32, ptr %10, align 4, !tbaa !4
  %21 = shl i32 %20, 14
  %22 = or i32 %19, %21
  %23 = load ptr, ptr %6, align 8, !tbaa !337
  %24 = getelementptr inbounds nuw %struct.FuncState, ptr %23, i32 0, i32 3
  %25 = load ptr, ptr %24, align 8, !tbaa !339
  %26 = getelementptr inbounds nuw %struct.LexState, ptr %25, i32 0, i32 2
  %27 = load i32, ptr %26, align 8, !tbaa !334
  %28 = call i32 @luaK_code(ptr noundef %11, i32 noundef %22, i32 noundef %27)
  ret i32 %28
}

; Function Attrs: nounwind uwtable
define internal void @luaX_syntaxerror(ptr noundef %0, ptr noundef %1) #0 {
  %3 = alloca ptr, align 8
  %4 = alloca ptr, align 8
  store ptr %0, ptr %3, align 8, !tbaa !327
  store ptr %1, ptr %4, align 8, !tbaa !13
  %5 = load ptr, ptr %3, align 8, !tbaa !327
  %6 = load ptr, ptr %4, align 8, !tbaa !13
  %7 = load ptr, ptr %3, align 8, !tbaa !327
  %8 = getelementptr inbounds nuw %struct.LexState, ptr %7, i32 0, i32 3
  %9 = getelementptr inbounds nuw %struct.Token, ptr %8, i32 0, i32 0
  %10 = load i32, ptr %9, align 8, !tbaa !352
  call void @luaX_lexerror(ptr noundef %5, ptr noundef %6, i32 noundef %10)
  ret void
}

; Function Attrs: nounwind uwtable
define internal void @breakstat(ptr noundef %0) #0 {
  %2 = alloca ptr, align 8
  %3 = alloca ptr, align 8
  %4 = alloca ptr, align 8
  %5 = alloca i32, align 4
  store ptr %0, ptr %2, align 8, !tbaa !327
  call void @llvm.lifetime.start.p0(i64 8, ptr %3) #14
  %6 = load ptr, ptr %2, align 8, !tbaa !327
  %7 = getelementptr inbounds nuw %struct.LexState, ptr %6, i32 0, i32 5
  %8 = load ptr, ptr %7, align 8, !tbaa !332
  store ptr %8, ptr %3, align 8, !tbaa !337
  call void @llvm.lifetime.start.p0(i64 8, ptr %4) #14
  %9 = load ptr, ptr %3, align 8, !tbaa !337
  %10 = getelementptr inbounds nuw %struct.FuncState, ptr %9, i32 0, i32 5
  %11 = load ptr, ptr %10, align 8, !tbaa !349
  store ptr %11, ptr %4, align 8, !tbaa !370
  call void @llvm.lifetime.start.p0(i64 4, ptr %5) #14
  store i32 0, ptr %5, align 4, !tbaa !4
  br label %12

12:                                               ; preds = %23, %1
  %13 = load ptr, ptr %4, align 8, !tbaa !370
  %14 = icmp ne ptr %13, null
  br i1 %14, label %15, label %21

15:                                               ; preds = %12
  %16 = load ptr, ptr %4, align 8, !tbaa !370
  %17 = getelementptr inbounds nuw %struct.BlockCnt, ptr %16, i32 0, i32 4
  %18 = load i8, ptr %17, align 2, !tbaa !371
  %19 = icmp ne i8 %18, 0
  %20 = xor i1 %19, true
  br label %21

21:                                               ; preds = %15, %12
  %22 = phi i1 [ false, %12 ], [ %20, %15 ]
  br i1 %22, label %23, label %33

23:                                               ; preds = %21
  %24 = load ptr, ptr %4, align 8, !tbaa !370
  %25 = getelementptr inbounds nuw %struct.BlockCnt, ptr %24, i32 0, i32 3
  %26 = load i8, ptr %25, align 1, !tbaa !364
  %27 = zext i8 %26 to i32
  %28 = load i32, ptr %5, align 4, !tbaa !4
  %29 = or i32 %28, %27
  store i32 %29, ptr %5, align 4, !tbaa !4
  %30 = load ptr, ptr %4, align 8, !tbaa !370
  %31 = getelementptr inbounds nuw %struct.BlockCnt, ptr %30, i32 0, i32 0
  %32 = load ptr, ptr %31, align 8, !tbaa !372
  store ptr %32, ptr %4, align 8, !tbaa !370
  br label %12, !llvm.loop !373

33:                                               ; preds = %21
  %34 = load ptr, ptr %4, align 8, !tbaa !370
  %35 = icmp ne ptr %34, null
  br i1 %35, label %38, label %36

36:                                               ; preds = %33
  %37 = load ptr, ptr %2, align 8, !tbaa !327
  call void @luaX_syntaxerror(ptr noundef %37, ptr noundef @.str.174)
  br label %38

38:                                               ; preds = %36, %33
  %39 = load i32, ptr %5, align 4, !tbaa !4
  %40 = icmp ne i32 %39, 0
  br i1 %40, label %41, label %48

41:                                               ; preds = %38
  %42 = load ptr, ptr %3, align 8, !tbaa !337
  %43 = load ptr, ptr %4, align 8, !tbaa !370
  %44 = getelementptr inbounds nuw %struct.BlockCnt, ptr %43, i32 0, i32 2
  %45 = load i8, ptr %44, align 4, !tbaa !374
  %46 = zext i8 %45 to i32
  %47 = call i32 @luaK_codeABC(ptr noundef %42, i32 noundef 35, i32 noundef %46, i32 noundef 0, i32 noundef 0)
  br label %48

48:                                               ; preds = %41, %38
  %49 = load ptr, ptr %3, align 8, !tbaa !337
  %50 = load ptr, ptr %4, align 8, !tbaa !370
  %51 = getelementptr inbounds nuw %struct.BlockCnt, ptr %50, i32 0, i32 1
  %52 = load ptr, ptr %3, align 8, !tbaa !337
  %53 = call i32 @luaK_jump(ptr noundef %52)
  call void @luaK_concat(ptr noundef %49, ptr noundef %51, i32 noundef %53)
  call void @llvm.lifetime.end.p0(i64 4, ptr %5) #14
  call void @llvm.lifetime.end.p0(i64 8, ptr %4) #14
  call void @llvm.lifetime.end.p0(i64 8, ptr %3) #14
  ret void
}