; Function Attrs: nounwind uwtable
define internal fastcc void @breakstat(ptr noundef nonnull readonly captures(none) %0) unnamed_addr #0 {
  %2 = getelementptr inbounds nuw i8, ptr %0, i64 48
  %3 = load ptr, ptr %2, align 8, !tbaa !289
  %4 = getelementptr inbounds nuw i8, ptr %3, i64 40
  %.01426 = load ptr, ptr %4, align 8, !tbaa !350
  %.not27 = icmp eq ptr %.01426, null
  br i1 %.not27, label %.critedge17, label %.lr.ph

.lr.ph:                                           ; preds = %1, %7
  %.01429 = phi ptr [ %.014, %7 ], [ %.01426, %1 ]
  %.028 = phi i32 [ %11, %7 ], [ 0, %1 ]
  %5 = getelementptr inbounds nuw i8, ptr %.01429, i64 14
  %6 = load i8, ptr %5, align 2, !tbaa !316
  %.not15 = icmp eq i8 %6, 0
  br i1 %.not15, label %7, label %.critedge

7:                                                ; preds = %.lr.ph
  %8 = getelementptr inbounds nuw i8, ptr %.01429, i64 13
  %9 = load i8, ptr %8, align 1, !tbaa !319
  %10 = zext i8 %9 to i32
  %11 = or i32 %.028, %10
  %.014 = load ptr, ptr %.01429, align 8, !tbaa !350
  %.not = icmp eq ptr %.014, null
  br i1 %.not, label %.critedge17, label %.lr.ph, !llvm.loop !351

.critedge17:                                      ; preds = %7, %1
  %12 = getelementptr inbounds nuw i8, ptr %0, i64 16
  %13 = load i32, ptr %12, align 8, !tbaa !301
  tail call fastcc void @luaX_lexerror(ptr noundef nonnull readonly %0, ptr noundef nonnull @.str.174, i32 noundef %13)
  unreachable

.critedge:                                        ; preds = %.lr.ph
  %.not16 = icmp eq i32 %.028, 0
  br i1 %.not16, label %25, label %14

14:                                               ; preds = %.critedge
  %15 = getelementptr inbounds nuw i8, ptr %.01429, i64 12
  %16 = load i8, ptr %15, align 4, !tbaa !318
  %17 = zext i8 %16 to i32
  %18 = shl nuw nsw i32 %17, 6
  %19 = or disjoint i32 %18, 35
  %20 = getelementptr inbounds nuw i8, ptr %3, i64 24
  %21 = load ptr, ptr %20, align 8, !tbaa !304
  %22 = getelementptr inbounds nuw i8, ptr %21, i64 8
  %23 = load i32, ptr %22, align 8, !tbaa !291
  %24 = tail call fastcc i32 @luaK_code(ptr noundef %3, i32 noundef %19, i32 noundef %23)
  br label %25

25:                                               ; preds = %14, %.critedge
  %26 = getelementptr inbounds nuw i8, ptr %.01429, i64 8
  %27 = getelementptr inbounds nuw i8, ptr %3, i64 56
  %28 = load i32, ptr %27, align 8, !tbaa !308
  store i32 -1, ptr %27, align 8, !tbaa !308
  %29 = getelementptr inbounds nuw i8, ptr %3, i64 24
  %30 = load ptr, ptr %29, align 8, !tbaa !304
  %31 = getelementptr inbounds nuw i8, ptr %30, i64 8
  %32 = load i32, ptr %31, align 8, !tbaa !291
  %33 = tail call fastcc i32 @luaK_code(ptr noundef %3, i32 noundef 2147450902, i32 noundef %32)
  %34 = icmp eq i32 %28, -1
  br i1 %34, label %luaK_jump.exit, label %35

35:                                               ; preds = %25
  %36 = icmp eq i32 %33, -1
  br i1 %36, label %luaK_jump.exit.thread, label %.preheader.i.i

.preheader.i.i:                                   ; preds = %35
  %.val.i.i = load ptr, ptr %3, align 8, !tbaa !296
  %37 = getelementptr i8, ptr %.val.i.i, i64 24
  %.val.val.i.i = load ptr, ptr %37, align 8, !tbaa !144
  br label %38

38:                                               ; preds = %38, %.preheader.i.i
  %.0.i.i = phi i32 [ %46, %38 ], [ %33, %.preheader.i.i ]
  %39 = sext i32 %.0.i.i to i64
  %40 = getelementptr inbounds i32, ptr %.val.val.i.i, i64 %39
  %41 = load i32, ptr %40, align 4, !tbaa !150
  %42 = lshr i32 %41, 14
  %43 = add nsw i32 %42, -131071
  %44 = icmp eq i32 %43, -1
  %45 = add nuw nsw i32 %.0.i.i, 1
  %46 = add nsw i32 %45, %43
  %.not13.i.i = icmp eq i32 %46, -1
  %.not.i.i = select i1 %44, i1 true, i1 %.not13.i.i
  br i1 %.not.i.i, label %47, label %38, !llvm.loop !321

47:                                               ; preds = %38
  %.neg.i.i.i = xor i32 %.0.i.i, -1
  %48 = add i32 %28, %.neg.i.i.i
  %49 = tail call i32 @llvm.abs.i32(i32 %48, i1 true)
  %50 = icmp samesign ugt i32 %49, 131071
  br i1 %50, label %51, label %fixjump.exit.i.i

51:                                               ; preds = %47
  %52 = load ptr, ptr %29, align 8, !tbaa !304
  %53 = getelementptr inbounds nuw i8, ptr %52, i64 16
  %54 = load i32, ptr %53, align 8, !tbaa !301
  tail call fastcc void @luaX_lexerror(ptr noundef readonly %52, ptr noundef nonnull @.str.150, i32 noundef %54)
  unreachable

fixjump.exit.i.i:                                 ; preds = %47
  %55 = getelementptr inbounds i32, ptr %.val.val.i.i, i64 %39
  %56 = and i32 %41, 16383
  %57 = shl i32 %48, 14
  %58 = add i32 %57, 2147467264
  %59 = or disjoint i32 %58, %56
  store i32 %59, ptr %55, align 4, !tbaa !150
  br label %luaK_jump.exit

luaK_jump.exit:                                   ; preds = %25, %fixjump.exit.i.i
  %60 = icmp eq i32 %33, -1
  br i1 %60, label %luaK_concat.exit, label %luaK_jump.exit.thread

luaK_jump.exit.thread:                            ; preds = %35, %luaK_jump.exit
  %.0.i20 = phi i32 [ %33, %luaK_jump.exit ], [ %28, %35 ]
  %61 = load i32, ptr %26, align 4, !tbaa !150
  %62 = icmp eq i32 %61, -1
  br i1 %62, label %64, label %.preheader.i

.preheader.i:                                     ; preds = %luaK_jump.exit.thread
  %.val.i = load ptr, ptr %3, align 8, !tbaa !296
  %63 = getelementptr i8, ptr %.val.i, i64 24
  %.val.val.i = load ptr, ptr %63, align 8, !tbaa !144
  br label %65

64:                                               ; preds = %luaK_jump.exit.thread
  store i32 %.0.i20, ptr %26, align 4, !tbaa !150
  br label %luaK_concat.exit

65:                                               ; preds = %65, %.preheader.i
  %.0.i18 = phi i32 [ %73, %65 ], [ %61, %.preheader.i ]
  %66 = sext i32 %.0.i18 to i64
  %67 = getelementptr inbounds i32, ptr %.val.val.i, i64 %66
  %68 = load i32, ptr %67, align 4, !tbaa !150
  %69 = lshr i32 %68, 14
  %70 = add nsw i32 %69, -131071
  %71 = icmp eq i32 %70, -1
  %72 = add nuw nsw i32 %.0.i18, 1
  %73 = add nsw i32 %72, %70
  %.not13.i = icmp eq i32 %73, -1
  %.not.i = select i1 %71, i1 true, i1 %.not13.i
  br i1 %.not.i, label %74, label %65, !llvm.loop !321

74:                                               ; preds = %65
  %.neg.i.i = xor i32 %.0.i18, -1
  %75 = add i32 %.0.i20, %.neg.i.i
  %76 = tail call i32 @llvm.abs.i32(i32 %75, i1 true)
  %77 = icmp samesign ugt i32 %76, 131071
  br i1 %77, label %78, label %fixjump.exit.i

78:                                               ; preds = %74
  %79 = load ptr, ptr %29, align 8, !tbaa !304
  %80 = getelementptr inbounds nuw i8, ptr %79, i64 16
  %81 = load i32, ptr %80, align 8, !tbaa !301
  tail call fastcc void @luaX_lexerror(ptr noundef readonly %79, ptr noundef nonnull @.str.150, i32 noundef %81)
  unreachable

fixjump.exit.i:                                   ; preds = %74
  %82 = getelementptr inbounds i32, ptr %.val.val.i, i64 %66
  %83 = and i32 %68, 16383
  %84 = shl i32 %75, 14
  %85 = add i32 %84, 2147467264
  %86 = or disjoint i32 %85, %83
  store i32 %86, ptr %82, align 4, !tbaa !150
  br label %luaK_concat.exit

luaK_concat.exit:                                 ; preds = %luaK_jump.exit, %64, %fixjump.exit.i
  ret void
}